; Function Attrs: mustprogress uwtable
define hidden void @_ZNK16bound_propagator14display_boundsERSobb(ptr nocapture noundef nonnull readonly align 8 dereferenceable(280) %this, ptr noundef nonnull align 8 dereferenceable(8) %out, i1 noundef zeroext %approx, i1 noundef zeroext %precise) local_unnamed_addr #3 align 2 {
entry:
  %m_dead = getelementptr inbounds i8, ptr %this, i64 96
  %0 = load ptr, ptr %m_dead, align 8
  %cmp.i = icmp eq ptr %0, null
  br i1 %cmp.i, label %for.end, label %_ZNK6vectorIcLb0EjE4sizeEv.exit

_ZNK6vectorIcLb0EjE4sizeEv.exit:                  ; preds = %entry
  %arrayidx.i = getelementptr inbounds i8, ptr %0, i64 -4
  %1 = load i32, ptr %arrayidx.i, align 4
  %cmp6.not = icmp eq i32 %1, 0
  br i1 %cmp6.not, label %for.end, label %for.body.preheader

for.body.preheader:                               ; preds = %_ZNK6vectorIcLb0EjE4sizeEv.exit
  %wide.trip.count = zext i32 %1 to i64
  br label %for.body

for.body:                                         ; preds = %for.body.preheader, %for.inc
  %indvars.iv = phi i64 [ 0, %for.body.preheader ], [ %indvars.iv.next, %for.inc ]
  %2 = load ptr, ptr %m_dead, align 8
  %arrayidx.i.i = getelementptr inbounds i8, ptr %2, i64 %indvars.iv
  %3 = load i8, ptr %arrayidx.i.i, align 1
  %cmp.i5.not = icmp eq i8 %3, 0
  br i1 %cmp.i5.not, label %if.then, label %for.inc

if.then:                                          ; preds = %for.body
  %4 = trunc i64 %indvars.iv to i32
  tail call void @_ZNK16bound_propagator18display_var_boundsERSojbb(ptr noundef nonnull align 8 dereferenceable(280) %this, ptr noundef nonnull align 8 dereferenceable(8) %out, i32 noundef %4, i1 noundef zeroext %approx, i1 noundef zeroext %precise)
  %call5 = tail call noundef nonnull align 8 dereferenceable(8) ptr @_ZStlsISt11char_traitsIcEERSt13basic_ostreamIcT_ES5_PKc(ptr noundef nonnull align 8 dereferenceable(8) %out, ptr noundef nonnull @.str.11)
  br label %for.inc

for.inc:                                          ; preds = %for.body, %if.then
  %indvars.iv.next = add nuw nsw i64 %indvars.iv, 1
  %exitcond.not = icmp eq i64 %indvars.iv.next, %wide.trip.count
  br i1 %exitcond.not, label %for.end, label %for.body, !llvm.loop !25

for.end:                                          ; preds = %for.inc, %entry, %_ZNK6vectorIcLb0EjE4sizeEv.exit
  ret void
}